ccopy_reg
_reconstructor
p0
(csklearn.preprocessing.label
LabelEncoder
p1
c__builtin__
object
p2
Ntp3
Rp4
(dp5
S'classes_'
p6
cnumpy.core.multiarray
_reconstruct
p7
(cnumpy
ndarray
p8
(I0
tp9
S'b'
p10
tp11
Rp12
(I1
(I117
tp13
cnumpy
dtype
p14
(S'O8'
p15
I0
I1
tp16
Rp17
(I3
S'|'
p18
NNNI-1
I-1
I63
tp19
bI00
(lp20
S'AE'
p21
aS'AI'
p22
aS'AL'
p23
aS'AM'
p24
aS'AO'
p25
aS'AR'
p26
aS'AT'
p27
aS'AU'
p28
aS'AZ'
p29
aS'BA'
p30
aS'BB'
p31
aS'BD'
p32
aS'BE'
p33
aS'BG'
p34
aS'BH'
p35
aS'BM'
p36
aS'BN'
p37
aS'BR'
p38
aS'BW'
p39
aS'BY'
p40
aS'BZ'
p41
aS'CA'
p42
aS'CH'
p43
aS'CK'
p44
aS'CL'
p45
aS'CN'
p46
aS'CO'
p47
aS'CR'
p48
aS'CW'
p49
aS'CY'
p50
aS'DE'
p51
aS'DK'
p52
aS'DO'
p53
aS'EC'
p54
aS'EE'
p55
aS'EG'
p56
aS'ES'
p57
aS'FI'
p58
aS'FJ'
p59
aS'FR'
p60
aS'GB'
p61
aS'GE'
p62
aS'GH'
p63
aS'GI'
p64
aS'HK'
p65
aS'HN'
p66
aS'HR'
p67
aS'HU'
p68
aS'ID'
p69
aS'IE'
p70
aS'IL'
p71
aS'IN'
p72
aS'IQ'
p73
aS'IS'
p74
aS'IT'
p75
aS'JO'
p76
aS'JP'
p77
aS'KE'
p78
aS'KH'
p79
aS'KR'
p80
aS'KW'
p81
aS'KZ'
p82
aS'LA'
p83
aS'LB'
p84
aS'LK'
p85
aS'LT'
p86
aS'LU'
p87
aS'LV'
p88
aS'LY'
p89
aS'MD'
p90
aS'ME'
p91
aS'MK'
p92
aS'MN'
p93
aS'MO'
p94
aS'MT'
p95
aS'MU'
p96
aS'MX'
p97
aS'MY'
p98
aS'NG'
p99
aS'NL'
p100
aS'NO'
p101
aS'NZ'
p102
aS'OM'
p103
aS'PA'
p104
aS'PE'
p105
aS'PH'
p106
aS'PK'
p107
aS'PL'
p108
aS'PT'
p109
aS'PY'
p110
aS'QA'
p111
aS'QQ'
p112
aS'RO'
p113
aS'RS'
p114
aS'RU'
p115
aS'SA'
p116
aS'SB'
p117
aS'SE'
p118
aS'SG'
p119
aS'SI'
p120
aS'SK'
p121
aS'SL'
p122
aS'TH'
p123
aS'TJ'
p124
aS'TM'
p125
aS'TR'
p126
aS'TW'
p127
aS'TZ'
p128
aS'UA'
p129
aS'US'
p130
aS'UY'
p131
aS'VG'
p132
aS'VN'
p133
aS'ZA'
p134
aS'ZM'
p135
aS'ZW'
p136
aS'ZZ'
p137
atp138
bsS'_sklearn_version'
p139
S'0.19.1'
p140
sb.